target datalayout = "e-m:e-p270:32:32-p271:32:32-p272:64:64-i64:64-i128:128-f80:128-n8:16:32:64-S128"
target triple = "x86_64-pc-linux-gnu"

%struct.Odc_Man_t_ = type { i32, i32, i32, i32, i32, i32, ptr, ptr, ptr, ptr, i32, i32, i32, ptr, i16, i16, ptr, i32, ptr, i32, i32, ptr, ptr, ptr, i32, i32, i32, i32, i32, i32, i64, i64, i64, i64, i64, i64, i64, i64 }
%struct.Vec_Ptr_t_ = type { i32, i32, ptr }

; Function Attrs: inlinehint nounwind uwtable
define internal ptr @Vec_PtrEntry(ptr noundef %0, i32 noundef %1) #5 {
  %3 = alloca ptr, align 8
  %4 = alloca i32, align 4
  store ptr %0, ptr %3, align 8, !tbaa !47
  store i32 %1, ptr %4, align 4, !tbaa !3
  %5 = load ptr, ptr %3, align 8, !tbaa !47
  %6 = getelementptr inbounds nuw %struct.Vec_Ptr_t_, ptr %5, i32 0, i32 2
  %7 = load ptr, ptr %6, align 8, !tbaa !51
  %8 = load i32, ptr %4, align 4, !tbaa !3
  %9 = sext i32 %8 to i64
  %10 = getelementptr inbounds ptr, ptr %7, i64 %9
  %11 = load ptr, ptr %10, align 8, !tbaa !57
  ret ptr %11
}

; Function Attrs: inlinehint nounwind uwtable
define internal void @Abc_InfoClear(ptr noundef %0, i32 noundef %1) #5 {
  %3 = alloca ptr, align 8
  %4 = alloca i32, align 4
  store ptr %0, ptr %3, align 8, !tbaa !42
  store i32 %1, ptr %4, align 4, !tbaa !3
  %5 = load ptr, ptr %3, align 8, !tbaa !42
  %6 = load i32, ptr %4, align 4, !tbaa !3
  %7 = sext i32 %6 to i64
  %8 = mul i64 4, %7
  call void @llvm.memset.p0.i64(ptr align 4 %5, i8 0, i64 %8, i1 false)
  ret void
}

; Function Attrs: inlinehint nounwind uwtable
define internal ptr @Odc_ObjTruth(ptr noundef %0, i16 noundef zeroext %1) #5 {
  %3 = alloca ptr, align 8
  %4 = alloca i16, align 2
  store ptr %0, ptr %3, align 8, !tbaa !7
  store i16 %1, ptr %4, align 2, !tbaa !59
  %5 = load ptr, ptr %3, align 8, !tbaa !7
  %6 = getelementptr inbounds nuw %struct.Odc_Man_t_, ptr %5, i32 0, i32 21
  %7 = load ptr, ptr %6, align 8, !tbaa !40
  %8 = load i16, ptr %4, align 2, !tbaa !59
  %9 = zext i16 %8 to i32
  %10 = ashr i32 %9, 1
  %11 = call ptr @Vec_PtrEntry(ptr noundef %7, i32 noundef %10)
  ret ptr %11
}

; Function Attrs: inlinehint nounwind uwtable
define internal zeroext i16 @Odc_Var(ptr noundef %0, i32 noundef %1) #5 {
  %3 = alloca ptr, align 8
  %4 = alloca i32, align 4
  store ptr %0, ptr %3, align 8, !tbaa !7
  store i32 %1, ptr %4, align 4, !tbaa !3
  %5 = load i32, ptr %4, align 4, !tbaa !3
  %6 = add nsw i32 %5, 1
  %7 = shl i32 %6, 1
  %8 = trunc i32 %7 to i16
  ret i16 %8
}

; Function Attrs: nounwind uwtable
define void @Abc_NtkDontCareSimulateSetElem2(ptr noundef %0) #0 {
  %2 = alloca ptr, align 8
  %3 = alloca ptr, align 8
  %4 = alloca i32, align 4
  %5 = alloca i32, align 4
  store ptr %0, ptr %2, align 8, !tbaa !7
  call void @llvm.lifetime.start.p0(i64 8, ptr %3) #10
  call void @llvm.lifetime.start.p0(i64 4, ptr %4) #10
  call void @llvm.lifetime.start.p0(i64 4, ptr %5) #10
  store i32 0, ptr %5, align 4, !tbaa !3
  br label %6

6:                                                ; preds = %50, %1
  %7 = load i32, ptr %5, align 4, !tbaa !3
  %8 = load ptr, ptr %2, align 8, !tbaa !7
  %9 = getelementptr inbounds nuw %struct.Odc_Man_t_, ptr %8, i32 0, i32 0
  %10 = load i32, ptr %9, align 8, !tbaa !10
  %11 = icmp slt i32 %7, %10
  br i1 %11, label %12, label %53

12:                                               ; preds = %6
  %13 = load ptr, ptr %2, align 8, !tbaa !7
  %14 = load ptr, ptr %2, align 8, !tbaa !7
  %15 = load i32, ptr %5, align 4, !tbaa !3
  %16 = call zeroext i16 @Odc_Var(ptr noundef %14, i32 noundef %15)
  %17 = call ptr @Odc_ObjTruth(ptr noundef %13, i16 noundef zeroext %16)
  store ptr %17, ptr %3, align 8, !tbaa !42
  %18 = load ptr, ptr %3, align 8, !tbaa !42
  %19 = load ptr, ptr %2, align 8, !tbaa !7
  %20 = getelementptr inbounds nuw %struct.Odc_Man_t_, ptr %19, i32 0, i32 20
  %21 = load i32, ptr %20, align 4, !tbaa !38
  call void @Abc_InfoClear(ptr noundef %18, i32 noundef %21)
  store i32 0, ptr %4, align 4, !tbaa !3
  br label %22

22:                                               ; preds = %46, %12
  %23 = load i32, ptr %4, align 4, !tbaa !3
  %24 = load ptr, ptr %2, align 8, !tbaa !7
  %25 = getelementptr inbounds nuw %struct.Odc_Man_t_, ptr %24, i32 0, i32 19
  %26 = load i32, ptr %25, align 8, !tbaa !39
  %27 = icmp slt i32 %23, %26
  br i1 %27, label %28, label %49

28:                                               ; preds = %22
  %29 = load i32, ptr %4, align 4, !tbaa !3
  %30 = load i32, ptr %5, align 4, !tbaa !3
  %31 = shl i32 1, %30
  %32 = and i32 %29, %31
  %33 = icmp ne i32 %32, 0
  br i1 %33, label %34, label %45

34:                                               ; preds = %28
  %35 = load i32, ptr %4, align 4, !tbaa !3
  %36 = and i32 %35, 31
  %37 = shl i32 1, %36
  %38 = load ptr, ptr %3, align 8, !tbaa !42
  %39 = load i32, ptr %4, align 4, !tbaa !3
  %40 = ashr i32 %39, 5
  %41 = sext i32 %40 to i64
  %42 = getelementptr inbounds i32, ptr %38, i64 %41
  %43 = load i32, ptr %42, align 4, !tbaa !3
  %44 = or i32 %43, %37
  store i32 %44, ptr %42, align 4, !tbaa !3
  br label %45

45:                                               ; preds = %34, %28
  br label %46

46:                                               ; preds = %45
  %47 = load i32, ptr %4, align 4, !tbaa !3
  %48 = add nsw i32 %47, 1
  store i32 %48, ptr %4, align 4, !tbaa !3
  br label %22, !llvm.loop !126

49:                                               ; preds = %22
  br label %50

50:                                               ; preds = %49
  %51 = load i32, ptr %5, align 4, !tbaa !3
  %52 = add nsw i32 %51, 1
  store i32 %52, ptr %5, align 4, !tbaa !3
  br label %6, !llvm.loop !127

53:                                               ; preds = %6
  call void @llvm.lifetime.end.p0(i64 4, ptr %5) #10
  call void @llvm.lifetime.end.p0(i64 4, ptr %4) #10
  call void @llvm.lifetime.end.p0(i64 8, ptr %3) #10
  ret void
}