; Function Attrs: nofree norecurse nosync nounwind memory(readwrite, inaccessiblemem: none) uwtable
define void @Abc_NtkDontCareSimulateSetElem2(ptr noundef readonly captures(none) %0) local_unnamed_addr #9 {
  %2 = load i32, ptr %0, align 8, !tbaa !3
  %3 = icmp sgt i32 %2, 0
  br i1 %3, label %.lr.ph19, label %._crit_edge20

.lr.ph19:                                         ; preds = %1
  %4 = getelementptr i8, ptr %0, i64 120
  %5 = getelementptr inbounds nuw i8, ptr %0, i64 116
  %6 = getelementptr inbounds nuw i8, ptr %0, i64 112
  br label %7

7:                                                ; preds = %.lr.ph19, %._crit_edge
  %.017 = phi i32 [ 0, %.lr.ph19 ], [ %narrow, %._crit_edge ]
  %.val = load ptr, ptr %4, align 8, !tbaa !46
  %8 = getelementptr i8, ptr %.val, i64 8
  %.val.val = load ptr, ptr %8, align 8, !tbaa !24
  %narrow = add nuw nsw i32 %.017, 1
  %9 = and i32 %narrow, 32767
  %10 = zext nneg i32 %9 to i64
  %11 = getelementptr inbounds nuw ptr, ptr %.val.val, i64 %10
  %12 = load ptr, ptr %11, align 8, !tbaa !44
  %13 = load i32, ptr %5, align 4, !tbaa !42
  %14 = sext i32 %13 to i64
  %15 = shl nsw i64 %14, 2
  tail call void @llvm.memset.p0.i64(ptr align 4 %12, i8 0, i64 %15, i1 false)
  %16 = load i32, ptr %6, align 8, !tbaa !43
  %17 = icmp sgt i32 %16, 0
  br i1 %17, label %.lr.ph, label %._crit_edge

.lr.ph:                                           ; preds = %7
  %18 = shl nuw i32 1, %.017
  br label %19

19:                                               ; preds = %.lr.ph, %30
  %20 = phi i32 [ %16, %.lr.ph ], [ %31, %30 ]
  %.01516 = phi i32 [ 0, %.lr.ph ], [ %32, %30 ]
  %21 = and i32 %.01516, %18
  %.not = icmp eq i32 %21, 0
  br i1 %.not, label %30, label %22

22:                                               ; preds = %19
  %23 = and i32 %.01516, 31
  %24 = shl nuw i32 1, %23
  %25 = lshr i32 %.01516, 5
  %26 = zext nneg i32 %25 to i64
  %27 = getelementptr inbounds nuw i32, ptr %12, i64 %26
  %28 = load i32, ptr %27, align 4, !tbaa !48
  %29 = or i32 %28, %24
  store i32 %29, ptr %27, align 4, !tbaa !48
  %.pre = load i32, ptr %6, align 8, !tbaa !43
  br label %30

30:                                               ; preds = %19, %22
  %31 = phi i32 [ %20, %19 ], [ %.pre, %22 ]
  %32 = add nuw nsw i32 %.01516, 1
  %33 = icmp slt i32 %32, %31
  br i1 %33, label %19, label %._crit_edge, !llvm.loop !123

._crit_edge:                                      ; preds = %30, %7
  %34 = load i32, ptr %0, align 8, !tbaa !3
  %35 = icmp slt i32 %narrow, %34
  br i1 %35, label %7, label %._crit_edge20, !llvm.loop !124

._crit_edge20:                                    ; preds = %._crit_edge, %1
  ret void
}